; Function Attrs: null_pointer_is_valid sspstrong uwtable
define internal i32 @fsrvp_dissect_ExposeShadowCopySet_request(ptr noundef %0, i32 noundef %1, ptr noundef %2, ptr noundef %3, ptr noundef initializes((72, 80)) %4, ptr noundef %5) #0 {
  %7 = getelementptr inbounds nuw i8, ptr %4, i64 72
  store ptr @.str.73, ptr %7, align 8
  %8 = load i32, ptr @hf_fsrvp_fsrvp_ExposeShadowCopySet_ShadowCopySetId, align 4
  %9 = tail call i32 @dissect_ndr_uuid_t(ptr noundef %0, i32 noundef %1, ptr noundef %2, ptr noundef %3, ptr noundef %4, ptr noundef %5, i32 noundef %8, ptr noundef null)
  %10 = load i32, ptr @hf_fsrvp_fsrvp_ExposeShadowCopySet_TimeOutInMilliseconds, align 4
  %11 = tail call i32 @PIDL_dissect_uint32(ptr noundef %0, i32 noundef %9, ptr noundef %2, ptr noundef %3, ptr noundef %4, ptr noundef %5, i32 noundef %10, i32 noundef 0)
  ret i32 %11
}